target datalayout = "e-m:e-p270:32:32-p271:32:32-p272:64:64-i64:64-i128:128-f80:128-n8:16:32:64-S128"
target triple = "x86_64-pc-linux-gnu"

%struct.ZSTD_customMem = type { ptr, ptr, ptr }
%struct.ZSTD_frameParameters = type { i32, i32, i32 }
%struct.ZSTD_compressionParameters = type { i32, i32, i32, i32, i32, i32, i32 }
%struct.ZSTD_CCtx_s = type { i32, i32, i32, %struct.ZSTD_CCtx_params_s, %struct.ZSTD_CCtx_params_s, %struct.ZSTD_CCtx_params_s, i32, i64, %struct.ZSTD_cwksp, i64, i64, i64, i64, %struct.XXH64_state_s, %struct.ZSTD_customMem, ptr, i64, %struct.SeqCollector, i32, i32, %struct.SeqStore_t, %struct.ldmState_t, ptr, i64, %struct.RawSeqStore_t, %struct.ZSTD_blockState_t, ptr, i64, i32, ptr, i64, i64, i64, i64, ptr, i64, i64, i64, i32, i32, %struct.ZSTD_inBuffer_s, i64, i64, %struct.ZSTD_localDict, ptr, %struct.ZSTD_prefixDict_s, ptr, i64, %struct.ZSTD_blockSplitCtx, ptr, i64 }
%struct.ZSTD_CCtx_params_s = type { i32, %struct.ZSTD_compressionParameters, %struct.ZSTD_frameParameters, i32, i32, i64, i32, i32, i32, i32, i64, i32, i32, %struct.ldmParams_t, i32, i32, i32, i32, i32, i32, i32, i64, i32, i32, %struct.ZSTD_customMem, i32, i32, ptr, ptr, i32 }
%struct.ldmParams_t = type { i32, i32, i32, i32, i32, i32 }
%struct.ZSTD_cwksp = type { ptr, ptr, ptr, ptr, ptr, ptr, ptr, i8, i32, i32, i32 }
%struct.XXH64_state_s = type { i64, [4 x i64], [4 x i64], i32, i32, i64 }
%struct.SeqCollector = type { i32, ptr, i64, i64 }
%struct.SeqStore_t = type { ptr, ptr, ptr, ptr, ptr, ptr, ptr, i64, i64, i32, i32 }
%struct.ldmState_t = type { %struct.ZSTD_window_t, ptr, i32, ptr, [64 x i64], [64 x %struct.ldmMatchCandidate_t] }
%struct.ZSTD_window_t = type { ptr, ptr, ptr, i32, i32, i32 }
%struct.ldmMatchCandidate_t = type { ptr, i32, i32, ptr }
%struct.RawSeqStore_t = type { ptr, i64, i64, i64, i64 }
%struct.ZSTD_blockState_t = type { ptr, ptr, %struct.ZSTD_MatchState_t }
%struct.ZSTD_MatchState_t = type { %struct.ZSTD_window_t, i32, i32, i32, i32, ptr, [8 x i32], i64, i32, ptr, ptr, ptr, i32, i32, %struct.optState_t, ptr, %struct.ZSTD_compressionParameters, ptr, i32, i32 }
%struct.optState_t = type { ptr, ptr, ptr, ptr, ptr, ptr, i32, i32, i32, i32, i32, i32, i32, i32, i32, ptr, i32 }
%struct.ZSTD_inBuffer_s = type { ptr, i64, i64 }
%struct.ZSTD_localDict = type { ptr, ptr, i64, i32, ptr }
%struct.ZSTD_prefixDict_s = type { ptr, i64, i32 }
%struct.ZSTD_blockSplitCtx = type { %struct.SeqStore_t, %struct.SeqStore_t, %struct.SeqStore_t, %struct.SeqStore_t, %struct.SeqStore_t, [196 x i32], %struct.ZSTD_entropyCTablesMetadata_t }
%struct.ZSTD_entropyCTablesMetadata_t = type { %struct.ZSTD_hufCTablesMetadata_t, %struct.ZSTD_fseCTablesMetadata_t }
%struct.ZSTD_hufCTablesMetadata_t = type { i32, [128 x i8], i64 }
%struct.ZSTD_fseCTablesMetadata_t = type { i32, i32, i32, [133 x i8], i64, i64 }
%struct.ZSTD_Trace = type { i32, i32, i32, i32, i64, i64, i64, ptr, ptr, ptr }

; Function Attrs: nounwind uwtable
define void @ZSTD_CCtx_trace(ptr noundef %0, i64 noundef %1) #0 {
  %3 = alloca ptr, align 8
  %4 = alloca i64, align 8
  %5 = alloca i32, align 4
  %6 = alloca %struct.ZSTD_Trace, align 8
  store ptr %0, ptr %3, align 8, !tbaa !11
  store i64 %1, ptr %4, align 8, !tbaa !3
  %7 = load ptr, ptr %3, align 8, !tbaa !11
  %8 = getelementptr inbounds nuw %struct.ZSTD_CCtx_s, ptr %7, i32 0, i32 47
  %9 = load i64, ptr %8, align 8, !tbaa !259
  %10 = icmp ne i64 %9, 0
  br i1 %10, label %11, label %61

11:                                               ; preds = %2
  %12 = icmp ne ptr @ZSTD_trace_compress_end, null
  br i1 %12, label %13, label %61

13:                                               ; preds = %11
  call void @llvm.lifetime.start.p0(i64 4, ptr %5) #15
  %14 = load ptr, ptr %3, align 8, !tbaa !11
  %15 = getelementptr inbounds nuw %struct.ZSTD_CCtx_s, ptr %14, i32 0, i32 30
  %16 = load i64, ptr %15, align 8, !tbaa !263
  %17 = icmp ugt i64 %16, 0
  br i1 %17, label %29, label %18

18:                                               ; preds = %13
  %19 = load ptr, ptr %3, align 8, !tbaa !11
  %20 = getelementptr inbounds nuw %struct.ZSTD_CCtx_s, ptr %19, i32 0, i32 35
  %21 = load i64, ptr %20, align 8, !tbaa !264
  %22 = icmp ugt i64 %21, 0
  br i1 %22, label %29, label %23

23:                                               ; preds = %18
  %24 = load ptr, ptr %3, align 8, !tbaa !11
  %25 = getelementptr inbounds nuw %struct.ZSTD_CCtx_s, ptr %24, i32 0, i32 4
  %26 = getelementptr inbounds nuw %struct.ZSTD_CCtx_params_s, ptr %25, i32 0, i32 9
  %27 = load i32, ptr %26, align 4, !tbaa !161
  %28 = icmp sgt i32 %27, 0
  br label %29

29:                                               ; preds = %23, %18, %13
  %30 = phi i1 [ true, %18 ], [ true, %13 ], [ %28, %23 ]
  %31 = zext i1 %30 to i32
  store i32 %31, ptr %5, align 4, !tbaa !53
  call void @llvm.lifetime.start.p0(i64 64, ptr %6) #15
  call void @llvm.memset.p0.i64(ptr align 8 %6, i8 0, i64 64, i1 false)
  %32 = getelementptr inbounds nuw %struct.ZSTD_Trace, ptr %6, i32 0, i32 0
  store i32 10507, ptr %32, align 8, !tbaa !265
  %33 = load i32, ptr %5, align 4, !tbaa !53
  %34 = getelementptr inbounds nuw %struct.ZSTD_Trace, ptr %6, i32 0, i32 1
  store i32 %33, ptr %34, align 4, !tbaa !268
  %35 = load ptr, ptr %3, align 8, !tbaa !11
  %36 = getelementptr inbounds nuw %struct.ZSTD_CCtx_s, ptr %35, i32 0, i32 6
  %37 = load i32, ptr %36, align 8, !tbaa !201
  %38 = getelementptr inbounds nuw %struct.ZSTD_Trace, ptr %6, i32 0, i32 2
  store i32 %37, ptr %38, align 8, !tbaa !269
  %39 = load ptr, ptr %3, align 8, !tbaa !11
  %40 = getelementptr inbounds nuw %struct.ZSTD_CCtx_s, ptr %39, i32 0, i32 7
  %41 = load i64, ptr %40, align 8, !tbaa !202
  %42 = getelementptr inbounds nuw %struct.ZSTD_Trace, ptr %6, i32 0, i32 4
  store i64 %41, ptr %42, align 8, !tbaa !270
  %43 = load ptr, ptr %3, align 8, !tbaa !11
  %44 = getelementptr inbounds nuw %struct.ZSTD_CCtx_s, ptr %43, i32 0, i32 11
  %45 = load i64, ptr %44, align 8, !tbaa !165
  %46 = getelementptr inbounds nuw %struct.ZSTD_Trace, ptr %6, i32 0, i32 5
  store i64 %45, ptr %46, align 8, !tbaa !271
  %47 = load ptr, ptr %3, align 8, !tbaa !11
  %48 = getelementptr inbounds nuw %struct.ZSTD_CCtx_s, ptr %47, i32 0, i32 12
  %49 = load i64, ptr %48, align 8, !tbaa !169
  %50 = load i64, ptr %4, align 8, !tbaa !3
  %51 = add i64 %49, %50
  %52 = getelementptr inbounds nuw %struct.ZSTD_Trace, ptr %6, i32 0, i32 6
  store i64 %51, ptr %52, align 8, !tbaa !272
  %53 = load ptr, ptr %3, align 8, !tbaa !11
  %54 = getelementptr inbounds nuw %struct.ZSTD_CCtx_s, ptr %53, i32 0, i32 4
  %55 = getelementptr inbounds nuw %struct.ZSTD_Trace, ptr %6, i32 0, i32 7
  store ptr %54, ptr %55, align 8, !tbaa !273
  %56 = load ptr, ptr %3, align 8, !tbaa !11
  %57 = getelementptr inbounds nuw %struct.ZSTD_Trace, ptr %6, i32 0, i32 8
  store ptr %56, ptr %57, align 8, !tbaa !274
  %58 = load ptr, ptr %3, align 8, !tbaa !11
  %59 = getelementptr inbounds nuw %struct.ZSTD_CCtx_s, ptr %58, i32 0, i32 47
  %60 = load i64, ptr %59, align 8, !tbaa !259
  call void @ZSTD_trace_compress_end(i64 noundef %60, ptr noundef %6)
  call void @llvm.lifetime.end.p0(i64 64, ptr %6) #15
  call void @llvm.lifetime.end.p0(i64 4, ptr %5) #15
  br label %61

61:                                               ; preds = %29, %11, %2
  %62 = load ptr, ptr %3, align 8, !tbaa !11
  %63 = getelementptr inbounds nuw %struct.ZSTD_CCtx_s, ptr %62, i32 0, i32 47
  store i64 0, ptr %63, align 8, !tbaa !259
  ret void
}